target datalayout = "e-m:e-p270:32:32-p271:32:32-p272:64:64-i64:64-i128:128-f80:128-n8:16:32:64-S128"
target triple = "x86_64-pc-linux-gnu"

%struct.zmq_msg_t = type { [64 x i8] }
%struct.iovec = type { ptr, i64 }

@stderr = external global ptr, align 8
@.str = private unnamed_addr constant [12 x i8] c"%s (%s:%d)\0A\00", align 1
@.str.1 = private unnamed_addr constant [103 x i8] c"generated/home/dtcxzyw/WorkSpace/Projects/compilers/llvm-opt-benchmark/bench/libzmq/libzmq/src/zmq.cpp\00", align 1

; Function Attrs: mustprogress uwtable
define i64 @zmq_msg_size(ptr noundef %0) #1 {
  %2 = alloca ptr, align 8
  store ptr %0, ptr %2, align 8, !tbaa !23
  %3 = load ptr, ptr %2, align 8, !tbaa !23
  %4 = call noundef i64 @_ZNK3zmq5msg_t4sizeEv(ptr noundef nonnull align 8 dereferenceable(64) %3)
  ret i64 %4
}

; Function Attrs: mustprogress uwtable
define i32 @zmq_msg_close(ptr noundef %0) #1 {
  %2 = alloca ptr, align 8
  store ptr %0, ptr %2, align 8, !tbaa !23
  %3 = load ptr, ptr %2, align 8, !tbaa !23
  %4 = call noundef i32 @_ZN3zmq5msg_t5closeEv(ptr noundef nonnull align 8 dereferenceable(64) %3)
  ret i32 %4
}

; Function Attrs: inlinehint mustprogress uwtable
define internal noundef i32 @_ZL9s_sendmsgPN3zmq13socket_base_tEP9zmq_msg_ti(ptr noundef %0, ptr noundef %1, i32 noundef %2) #9 {
  %4 = alloca i32, align 4
  %5 = alloca ptr, align 8
  %6 = alloca ptr, align 8
  %7 = alloca i32, align 4
  %8 = alloca i64, align 8
  %9 = alloca i32, align 4
  %10 = alloca i32, align 4
  %11 = alloca i64, align 8
  store ptr %0, ptr %5, align 8, !tbaa !17
  store ptr %1, ptr %6, align 8, !tbaa !23
  store i32 %2, ptr %7, align 4, !tbaa !8
  call void @llvm.lifetime.start.p0(i64 8, ptr %8) #20
  %12 = load ptr, ptr %6, align 8, !tbaa !23
  %13 = call i64 @zmq_msg_size(ptr noundef %12)
  store i64 %13, ptr %8, align 8, !tbaa !13
  call void @llvm.lifetime.start.p0(i64 4, ptr %9) #20
  %14 = load ptr, ptr %5, align 8, !tbaa !17
  %15 = load ptr, ptr %6, align 8, !tbaa !23
  %16 = load i32, ptr %7, align 4, !tbaa !8
  %17 = call noundef i32 @_ZN3zmq13socket_base_t4sendEPNS_5msg_tEi(ptr noundef nonnull align 8 dereferenceable(1825) %14, ptr noundef %15, i32 noundef %16)
  store i32 %17, ptr %9, align 4, !tbaa !8
  %18 = load i32, ptr %9, align 4, !tbaa !8
  %19 = icmp slt i32 %18, 0
  %20 = zext i1 %19 to i64
  %21 = call i64 @llvm.expect.i64(i64 %20, i64 0)
  %22 = icmp ne i64 %21, 0
  br i1 %22, label %23, label %24

23:                                               ; preds = %3
  store i32 -1, ptr %4, align 4
  store i32 1, ptr %10, align 4
  br label %35

24:                                               ; preds = %3
  call void @llvm.lifetime.start.p0(i64 8, ptr %11) #20
  store i64 2147483647, ptr %11, align 8, !tbaa !13
  %25 = load i64, ptr %8, align 8, !tbaa !13
  %26 = load i64, ptr %11, align 8, !tbaa !13
  %27 = icmp ult i64 %25, %26
  br i1 %27, label %28, label %30

28:                                               ; preds = %24
  %29 = load i64, ptr %8, align 8, !tbaa !13
  br label %32

30:                                               ; preds = %24
  %31 = load i64, ptr %11, align 8, !tbaa !13
  br label %32

32:                                               ; preds = %30, %28
  %33 = phi i64 [ %29, %28 ], [ %31, %30 ]
  %34 = trunc i64 %33 to i32
  store i32 %34, ptr %4, align 4
  store i32 1, ptr %10, align 4
  call void @llvm.lifetime.end.p0(i64 8, ptr %11) #20
  br label %35

35:                                               ; preds = %32, %23
  call void @llvm.lifetime.end.p0(i64 4, ptr %9) #20
  call void @llvm.lifetime.end.p0(i64 8, ptr %8) #20
  %36 = load i32, ptr %4, align 4
  ret i32 %36
}

; Function Attrs: mustprogress uwtable
define ptr @zmq_msg_data(ptr noundef %0) #1 {
  %2 = alloca ptr, align 8
  store ptr %0, ptr %2, align 8, !tbaa !23
  %3 = load ptr, ptr %2, align 8, !tbaa !23
  %4 = call noundef ptr @_ZN3zmq5msg_t4dataEv(ptr noundef nonnull align 8 dereferenceable(64) %3)
  ret ptr %4
}

; Function Attrs: mustprogress uwtable
define i32 @zmq_msg_init_size(ptr noundef %0, i64 noundef %1) #1 {
  %3 = alloca ptr, align 8
  %4 = alloca i64, align 8
  store ptr %0, ptr %3, align 8, !tbaa !23
  store i64 %1, ptr %4, align 8, !tbaa !13
  %5 = load ptr, ptr %3, align 8, !tbaa !23
  %6 = load i64, ptr %4, align 8, !tbaa !13
  %7 = call noundef i32 @_ZN3zmq5msg_t9init_sizeEm(ptr noundef nonnull align 8 dereferenceable(64) %5, i64 noundef %6)
  ret i32 %7
}

; Function Attrs: mustprogress uwtable
define internal noundef ptr @_ZL16as_socket_base_tPv(ptr noundef %0) #1 {
  %2 = alloca ptr, align 8
  %3 = alloca ptr, align 8
  %4 = alloca ptr, align 8
  %5 = alloca i32, align 4
  store ptr %0, ptr %3, align 8, !tbaa !12
  call void @llvm.lifetime.start.p0(i64 8, ptr %4) #20
  %6 = load ptr, ptr %3, align 8, !tbaa !12
  store ptr %6, ptr %4, align 8, !tbaa !17
  %7 = load ptr, ptr %3, align 8, !tbaa !12
  %8 = icmp ne ptr %7, null
  br i1 %8, label %9, label %12

9:                                                ; preds = %1
  %10 = load ptr, ptr %4, align 8, !tbaa !17
  %11 = call noundef zeroext i1 @_ZNK3zmq13socket_base_t9check_tagEv(ptr noundef nonnull align 8 dereferenceable(1825) %10)
  br i1 %11, label %14, label %12

12:                                               ; preds = %9, %1
  %13 = call ptr @__errno_location() #19
  store i32 88, ptr %13, align 4, !tbaa !8
  store ptr null, ptr %2, align 8
  store i32 1, ptr %5, align 4
  br label %16

14:                                               ; preds = %9
  %15 = load ptr, ptr %4, align 8, !tbaa !17
  store ptr %15, ptr %2, align 8
  store i32 1, ptr %5, align 4
  br label %16

16:                                               ; preds = %14, %12
  call void @llvm.lifetime.end.p0(i64 8, ptr %4) #20
  %17 = load ptr, ptr %2, align 8
  ret ptr %17
}

; Function Attrs: mustprogress uwtable
define i32 @zmq_sendiov(ptr noundef %0, ptr noundef %1, i64 noundef %2, i32 noundef %3) #1 {
  %5 = alloca i32, align 4
  %6 = alloca ptr, align 8
  %7 = alloca ptr, align 8
  %8 = alloca i64, align 8
  %9 = alloca i32, align 4
  %10 = alloca ptr, align 8
  %11 = alloca i32, align 4
  %12 = alloca i32, align 4
  %13 = alloca %struct.zmq_msg_t, align 8
  %14 = alloca i64, align 8
  %15 = alloca i32, align 4
  %16 = alloca i32, align 4
  %17 = alloca ptr, align 8
  store ptr %0, ptr %6, align 8, !tbaa !12
  store ptr %1, ptr %7, align 8, !tbaa !27
  store i64 %2, ptr %8, align 8, !tbaa !13
  store i32 %3, ptr %9, align 4, !tbaa !8
  call void @llvm.lifetime.start.p0(i64 8, ptr %10) #20
  %18 = load ptr, ptr %6, align 8, !tbaa !12
  %19 = call noundef ptr @_ZL16as_socket_base_tPv(ptr noundef %18)
  store ptr %19, ptr %10, align 8, !tbaa !17
  %20 = load ptr, ptr %10, align 8, !tbaa !17
  %21 = icmp ne ptr %20, null
  br i1 %21, label %23, label %22

22:                                               ; preds = %4
  store i32 -1, ptr %5, align 4
  store i32 1, ptr %11, align 4
  br label %114

23:                                               ; preds = %4
  %24 = load i64, ptr %8, align 8, !tbaa !13
  %25 = icmp ule i64 %24, 0
  br i1 %25, label %30, label %26

26:                                               ; preds = %23
  %27 = load ptr, ptr %7, align 8, !tbaa !27
  %28 = icmp ne ptr %27, null
  %29 = xor i1 %28, true
  br label %30

30:                                               ; preds = %26, %23
  %31 = phi i1 [ true, %23 ], [ %29, %26 ]
  %32 = zext i1 %31 to i64
  %33 = call i64 @llvm.expect.i64(i64 %32, i64 0)
  %34 = icmp ne i64 %33, 0
  br i1 %34, label %35, label %37

35:                                               ; preds = %30
  %36 = call ptr @__errno_location() #19
  store i32 22, ptr %36, align 4, !tbaa !8
  store i32 -1, ptr %5, align 4
  store i32 1, ptr %11, align 4
  br label %114

37:                                               ; preds = %30
  call void @llvm.lifetime.start.p0(i64 4, ptr %12) #20
  store i32 0, ptr %12, align 4, !tbaa !8
  call void @llvm.lifetime.start.p0(i64 64, ptr %13) #20
  call void @llvm.lifetime.start.p0(i64 8, ptr %14) #20
  store i64 0, ptr %14, align 8, !tbaa !13
  br label %38

38:                                               ; preds = %108, %37
  %39 = load i64, ptr %14, align 8, !tbaa !13
  %40 = load i64, ptr %8, align 8, !tbaa !13
  %41 = icmp ult i64 %39, %40
  br i1 %41, label %43, label %42

42:                                               ; preds = %38
  store i32 2, ptr %11, align 4
  br label %111

43:                                               ; preds = %38
  %44 = load ptr, ptr %7, align 8, !tbaa !27
  %45 = load i64, ptr %14, align 8, !tbaa !13
  %46 = getelementptr inbounds nuw %struct.iovec, ptr %44, i64 %45
  %47 = getelementptr inbounds nuw %struct.iovec, ptr %46, i32 0, i32 1
  %48 = load i64, ptr %47, align 8, !tbaa !29
  %49 = call i32 @zmq_msg_init_size(ptr noundef %13, i64 noundef %48)
  store i32 %49, ptr %12, align 4, !tbaa !8
  %50 = load i32, ptr %12, align 4, !tbaa !8
  %51 = icmp ne i32 %50, 0
  br i1 %51, label %52, label %53

52:                                               ; preds = %43
  store i32 -1, ptr %12, align 4, !tbaa !8
  store i32 2, ptr %11, align 4
  br label %111

53:                                               ; preds = %43
  %54 = call ptr @zmq_msg_data(ptr noundef %13)
  %55 = load ptr, ptr %7, align 8, !tbaa !27
  %56 = load i64, ptr %14, align 8, !tbaa !13
  %57 = getelementptr inbounds nuw %struct.iovec, ptr %55, i64 %56
  %58 = getelementptr inbounds nuw %struct.iovec, ptr %57, i32 0, i32 0
  %59 = load ptr, ptr %58, align 8, !tbaa !31
  %60 = load ptr, ptr %7, align 8, !tbaa !27
  %61 = load i64, ptr %14, align 8, !tbaa !13
  %62 = getelementptr inbounds nuw %struct.iovec, ptr %60, i64 %61
  %63 = getelementptr inbounds nuw %struct.iovec, ptr %62, i32 0, i32 1
  %64 = load i64, ptr %63, align 8, !tbaa !29
  call void @llvm.memcpy.p0.p0.i64(ptr align 1 %54, ptr align 1 %59, i64 %64, i1 false)
  %65 = load i64, ptr %14, align 8, !tbaa !13
  %66 = load i64, ptr %8, align 8, !tbaa !13
  %67 = sub i64 %66, 1
  %68 = icmp eq i64 %65, %67
  br i1 %68, label %69, label %72

69:                                               ; preds = %53
  %70 = load i32, ptr %9, align 4, !tbaa !8
  %71 = and i32 %70, -3
  store i32 %71, ptr %9, align 4, !tbaa !8
  br label %72

72:                                               ; preds = %69, %53
  %73 = load ptr, ptr %10, align 8, !tbaa !17
  %74 = load i32, ptr %9, align 4, !tbaa !8
  %75 = call noundef i32 @_ZL9s_sendmsgPN3zmq13socket_base_tEP9zmq_msg_ti(ptr noundef %73, ptr noundef %13, i32 noundef %74)
  store i32 %75, ptr %12, align 4, !tbaa !8
  %76 = load i32, ptr %12, align 4, !tbaa !8
  %77 = icmp slt i32 %76, 0
  %78 = zext i1 %77 to i64
  %79 = call i64 @llvm.expect.i64(i64 %78, i64 0)
  %80 = icmp ne i64 %79, 0
  br i1 %80, label %81, label %107

81:                                               ; preds = %72
  call void @llvm.lifetime.start.p0(i64 4, ptr %15) #20
  %82 = call ptr @__errno_location() #19
  %83 = load i32, ptr %82, align 4, !tbaa !8
  store i32 %83, ptr %15, align 4, !tbaa !8
  call void @llvm.lifetime.start.p0(i64 4, ptr %16) #20
  %84 = call i32 @zmq_msg_close(ptr noundef %13)
  store i32 %84, ptr %16, align 4, !tbaa !8
  br label %85

85:                                               ; preds = %81
  %86 = load i32, ptr %16, align 4, !tbaa !8
  %87 = icmp eq i32 %86, 0
  %88 = xor i1 %87, true
  %89 = zext i1 %88 to i64
  %90 = call i64 @llvm.expect.i64(i64 %89, i64 0)
  %91 = icmp ne i64 %90, 0
  br i1 %91, label %92, label %102

92:                                               ; preds = %85
  call void @llvm.lifetime.start.p0(i64 8, ptr %17) #20
  %93 = call ptr @__errno_location() #19
  %94 = load i32, ptr %93, align 4, !tbaa !8
  %95 = call ptr @strerror(i32 noundef %94) #20
  store ptr %95, ptr %17, align 8, !tbaa !19
  %96 = load ptr, ptr @stderr, align 8, !tbaa !25
  %97 = load ptr, ptr %17, align 8, !tbaa !19
  %98 = call i32 (ptr, ptr, ...) @fprintf(ptr noundef %96, ptr noundef @.str, ptr noundef %97, ptr noundef @.str.1, i32 noundef 458) #20
  %99 = load ptr, ptr @stderr, align 8, !tbaa !25
  %100 = call i32 @fflush(ptr noundef %99)
  %101 = load ptr, ptr %17, align 8, !tbaa !19
  call void @_ZN3zmq9zmq_abortEPKc(ptr noundef %101)
  call void @llvm.lifetime.end.p0(i64 8, ptr %17) #20
  br label %102

102:                                              ; preds = %92, %85
  br label %103

103:                                              ; preds = %102
  br label %104

104:                                              ; preds = %103
  %105 = load i32, ptr %15, align 4, !tbaa !8
  %106 = call ptr @__errno_location() #19
  store i32 %105, ptr %106, align 4, !tbaa !8
  store i32 -1, ptr %12, align 4, !tbaa !8
  store i32 2, ptr %11, align 4
  call void @llvm.lifetime.end.p0(i64 4, ptr %16) #20
  call void @llvm.lifetime.end.p0(i64 4, ptr %15) #20
  br label %111

107:                                              ; preds = %72
  br label %108

108:                                              ; preds = %107
  %109 = load i64, ptr %14, align 8, !tbaa !13
  %110 = add i64 %109, 1
  store i64 %110, ptr %14, align 8, !tbaa !13
  br label %38, !llvm.loop !32

111:                                              ; preds = %104, %52, %42
  call void @llvm.lifetime.end.p0(i64 8, ptr %14) #20
  br label %112

112:                                              ; preds = %111
  %113 = load i32, ptr %12, align 4, !tbaa !8
  store i32 %113, ptr %5, align 4
  store i32 1, ptr %11, align 4
  call void @llvm.lifetime.end.p0(i64 64, ptr %13) #20
  call void @llvm.lifetime.end.p0(i64 4, ptr %12) #20
  br label %114

114:                                              ; preds = %112, %35, %22
  call void @llvm.lifetime.end.p0(i64 8, ptr %10) #20
  %115 = load i32, ptr %5, align 4
  ret i32 %115
}