; Function Attrs: mustprogress uwtable
define range(i32 -1, -2147483648) i32 @zmq_sendiov(ptr noundef %0, ptr noundef readonly %1, i64 noundef %2, i32 noundef %3) local_unnamed_addr #1 {
  %5 = alloca %struct.zmq_msg_t, align 8
  %.not.i = icmp eq ptr %0, null
  br i1 %.not.i, label %_ZL16as_socket_base_tPv.exit.thread, label %6

6:                                                ; preds = %4
  %7 = tail call noundef zeroext i1 @_ZNK3zmq13socket_base_t9check_tagEv(ptr noundef nonnull align 8 dereferenceable(1825) %0)
  br i1 %7, label %_ZL16as_socket_base_tPv.exit, label %_ZL16as_socket_base_tPv.exit.thread

_ZL16as_socket_base_tPv.exit.thread:              ; preds = %4, %6
  %8 = tail call ptr @__errno_location() #20
  store i32 88, ptr %8, align 4, !tbaa !3
  br label %45

_ZL16as_socket_base_tPv.exit:                     ; preds = %6
  %9 = icmp eq i64 %2, 0
  %.not32 = icmp eq ptr %1, null
  %10 = or i1 %.not32, %9
  br i1 %10, label %11, label %13, !prof !10

11:                                               ; preds = %_ZL16as_socket_base_tPv.exit
  %12 = tail call ptr @__errno_location() #20
  store i32 22, ptr %12, align 4, !tbaa !3
  br label %45

13:                                               ; preds = %_ZL16as_socket_base_tPv.exit
  call void @llvm.lifetime.start.p0(i64 64, ptr nonnull %5) #22
  %14 = add i64 %2, -1
  br label %15

15:                                               ; preds = %13, %41
  %.02539 = phi i32 [ %3, %13 ], [ %spec.select, %41 ]
  %.02638 = phi i64 [ 0, %13 ], [ %42, %41 ]
  %16 = getelementptr inbounds nuw %struct.iovec, ptr %1, i64 %.02638
  %17 = getelementptr inbounds nuw i8, ptr %16, i64 8
  %18 = load i64, ptr %17, align 8, !tbaa !14
  %19 = call noundef i32 @_ZN3zmq5msg_t9init_sizeEm(ptr noundef nonnull align 8 dereferenceable(64) %5, i64 noundef %18)
  %.not33 = icmp eq i32 %19, 0
  br i1 %.not33, label %20, label %.loopexit

20:                                               ; preds = %15
  %21 = call noundef ptr @_ZN3zmq5msg_t4dataEv(ptr noundef nonnull align 8 dereferenceable(64) %5)
  %22 = load ptr, ptr %16, align 8, !tbaa !16
  %23 = load i64, ptr %17, align 8, !tbaa !14
  call void @llvm.memcpy.p0.p0.i64(ptr align 1 %21, ptr align 1 %22, i64 %23, i1 false)
  %24 = icmp eq i64 %.02638, %14
  %25 = and i32 %.02539, -3
  %spec.select = select i1 %24, i32 %25, i32 %.02539
  %26 = call noundef i64 @_ZNK3zmq5msg_t4sizeEv(ptr noundef nonnull align 8 dereferenceable(64) %5)
  %27 = call noundef i32 @_ZN3zmq13socket_base_t4sendEPNS_5msg_tEi(ptr noundef nonnull align 8 dereferenceable(1825) %0, ptr noundef nonnull %5, i32 noundef %spec.select)
  %28 = icmp slt i32 %27, 0
  br i1 %28, label %29, label %41, !prof !10

29:                                               ; preds = %20
  %30 = tail call ptr @__errno_location() #20
  %31 = load i32, ptr %30, align 4, !tbaa !3
  %32 = call noundef i32 @_ZN3zmq5msg_t5closeEv(ptr noundef nonnull align 8 dereferenceable(64) %5)
  %.not34 = icmp eq i32 %32, 0
  br i1 %.not34, label %40, label %33, !prof !9

33:                                               ; preds = %29
  %34 = load i32, ptr %30, align 4, !tbaa !3
  %35 = call ptr @strerror(i32 noundef %34) #22
  %36 = load ptr, ptr @stderr, align 8, !tbaa !11
  %37 = call i32 (ptr, ptr, ...) @fprintf(ptr noundef %36, ptr noundef nonnull @.str, ptr noundef %35, ptr noundef nonnull @.str.1, i32 noundef 458) #24
  %38 = load ptr, ptr @stderr, align 8, !tbaa !11
  %39 = call i32 @fflush(ptr noundef %38)
  call void @_ZN3zmq9zmq_abortEPKc(ptr noundef %35)
  br label %40

40:                                               ; preds = %33, %29
  store i32 %31, ptr %30, align 4, !tbaa !3
  br label %.loopexit

41:                                               ; preds = %20
  %42 = add nuw i64 %.02638, 1
  %exitcond.not = icmp eq i64 %42, %2
  br i1 %exitcond.not, label %.loopexit.split.loop.exit, label %15, !llvm.loop !17

.loopexit.split.loop.exit:                        ; preds = %41
  %43 = call i64 @llvm.umin.i64(i64 %26, i64 2147483647)
  %44 = trunc nuw nsw i64 %43 to i32
  br label %.loopexit

.loopexit:                                        ; preds = %15, %.loopexit.split.loop.exit, %40
  %.128 = phi i32 [ -1, %40 ], [ %44, %.loopexit.split.loop.exit ], [ -1, %15 ]
  call void @llvm.lifetime.end.p0(i64 64, ptr nonnull %5) #22
  br label %45

45:                                               ; preds = %_ZL16as_socket_base_tPv.exit.thread, %.loopexit, %11
  %.0 = phi i32 [ -1, %11 ], [ %.128, %.loopexit ], [ -1, %_ZL16as_socket_base_tPv.exit.thread ]
  ret i32 %.0
}